target datalayout = "e-m:e-p270:32:32-p271:32:32-p272:64:64-i64:64-i128:128-f80:128-n8:16:32:64-S128"
target triple = "x86_64-unknown-linux-gnu"

%"class.cvc5::context::DefaultCleanUp" = type { i8 }
%"class.cvc5::internal::AtomRequests" = type { %"class.cvc5::context::CDHashSet", %"class.cvc5::context::CDList", %"class.cvc5::context::CDHashMap" }
%"class.cvc5::context::CDHashSet" = type { %"class.cvc5::context::CDInsertHashMap" }
%"class.cvc5::context::CDInsertHashMap" = type { %"class.cvc5::context::ContextObj", ptr, i64 }
%"class.cvc5::context::ContextObj" = type { ptr, ptr, ptr, ptr, ptr }
%"class.cvc5::context::CDList" = type <{ %"class.cvc5::context::ContextObj", %"class.std::vector", i64, i8, %"class.cvc5::context::DefaultCleanUp", [6 x i8] }>
%"class.std::vector" = type { %"struct.std::_Vector_base" }
%"struct.std::_Vector_base" = type { %"struct.std::_Vector_base<cvc5::internal::AtomRequests::Element, std::allocator<cvc5::internal::AtomRequests::Element>>::_Vector_impl" }
%"struct.std::_Vector_base<cvc5::internal::AtomRequests::Element, std::allocator<cvc5::internal::AtomRequests::Element>>::_Vector_impl" = type { %"struct.std::_Vector_base<cvc5::internal::AtomRequests::Element, std::allocator<cvc5::internal::AtomRequests::Element>>::_Vector_impl_data" }
%"struct.std::_Vector_base<cvc5::internal::AtomRequests::Element, std::allocator<cvc5::internal::AtomRequests::Element>>::_Vector_impl_data" = type { ptr, ptr, ptr }
%"class.cvc5::context::CDHashMap" = type { %"class.cvc5::context::ContextObj", %"class.std::unordered_map", ptr, ptr }
%"class.std::unordered_map" = type { %"class.std::_Hashtable" }
%"class.std::_Hashtable" = type { ptr, i64, %"struct.std::__detail::_Hash_node_base", i64, %"struct.std::__detail::_Prime_rehash_policy", ptr }
%"struct.std::__detail::_Hash_node_base" = type { ptr }
%"struct.std::__detail::_Prime_rehash_policy" = type { float, i64 }
%"class.cvc5::internal::NodeTemplate.5" = type { ptr }
%"class.cvc5::internal::AtomRequests::atom_iterator" = type { ptr, i64 }
%"struct.cvc5::internal::AtomRequests::Request" = type <{ %"class.cvc5::internal::NodeTemplate.5", i32, [4 x i8] }>
%"struct.cvc5::internal::AtomRequests::Element" = type { %"struct.cvc5::internal::AtomRequests::Request", i64 }

; Function Attrs: mustprogress nounwind uwtable
define linkonce_odr hidden noundef nonnull align 8 dereferenceable(24) ptr @_ZNKSt6vectorIN4cvc58internal12AtomRequests7ElementESaIS3_EEixEm(ptr noundef nonnull align 8 dereferenceable(24) %this, i64 noundef %__n) #5 comdat align 2 {
entry:
  %this.addr = alloca ptr, align 8
  %__n.addr = alloca i64, align 8
  store ptr %this, ptr %this.addr, align 8
  store i64 %__n, ptr %__n.addr, align 8
  %this1 = load ptr, ptr %this.addr, align 8
  %_M_impl = getelementptr inbounds %"struct.std::_Vector_base", ptr %this1, i32 0, i32 0
  %_M_start = getelementptr inbounds %"struct.std::_Vector_base<cvc5::internal::AtomRequests::Element, std::allocator<cvc5::internal::AtomRequests::Element>>::_Vector_impl_data", ptr %_M_impl, i32 0, i32 0
  %0 = load ptr, ptr %_M_start, align 8
  %1 = load i64, ptr %__n.addr, align 8
  %add.ptr = getelementptr inbounds %"struct.cvc5::internal::AtomRequests::Element", ptr %0, i64 %1
  ret ptr %add.ptr
}

; Function Attrs: mustprogress nounwind uwtable
define linkonce_odr hidden noundef nonnull align 8 dereferenceable(24) ptr @_ZNK4cvc57context6CDListINS_8internal12AtomRequests7ElementENS0_14DefaultCleanUpIS4_EESaIS4_EEixEm(ptr noundef nonnull align 8 dereferenceable(74) %this, i64 noundef %i) #5 comdat align 2 {
entry:
  %this.addr = alloca ptr, align 8
  %i.addr = alloca i64, align 8
  store ptr %this, ptr %this.addr, align 8
  store i64 %i, ptr %i.addr, align 8
  %this1 = load ptr, ptr %this.addr, align 8
  %d_list = getelementptr inbounds %"class.cvc5::context::CDList", ptr %this1, i32 0, i32 1
  %0 = load i64, ptr %i.addr, align 8
  %call = call noundef nonnull align 8 dereferenceable(24) ptr @_ZNKSt6vectorIN4cvc58internal12AtomRequests7ElementESaIS3_EEixEm(ptr noundef nonnull align 8 dereferenceable(24) %d_list, i64 noundef %0) #3
  ret ptr %call
}

; Function Attrs: mustprogress uwtable
define hidden noundef nonnull align 8 dereferenceable(12) ptr @_ZNK4cvc58internal12AtomRequests13atom_iterator3getEv(ptr noundef nonnull align 8 dereferenceable(16) %this) #4 align 2 {
entry:
  %this.addr = alloca ptr, align 8
  store ptr %this, ptr %this.addr, align 8
  %this1 = load ptr, ptr %this.addr, align 8
  %d_requests = getelementptr inbounds %"class.cvc5::internal::AtomRequests::atom_iterator", ptr %this1, i32 0, i32 0
  %0 = load ptr, ptr %d_requests, align 8
  %d_requests2 = getelementptr inbounds %"class.cvc5::internal::AtomRequests", ptr %0, i32 0, i32 1
  %d_index = getelementptr inbounds %"class.cvc5::internal::AtomRequests::atom_iterator", ptr %this1, i32 0, i32 1
  %1 = load i64, ptr %d_index, align 8
  %call = call noundef nonnull align 8 dereferenceable(24) ptr @_ZNK4cvc57context6CDListINS_8internal12AtomRequests7ElementENS0_14DefaultCleanUpIS4_EESaIS4_EEixEm(ptr noundef nonnull align 8 dereferenceable(74) %d_requests2, i64 noundef %1)
  %d_request = getelementptr inbounds %"struct.cvc5::internal::AtomRequests::Element", ptr %call, i32 0, i32 0
  ret ptr %d_request
}