; Function Attrs: mustprogress nofree norecurse nosync nounwind willreturn memory(read, inaccessiblemem: none) uwtable
define hidden noundef nonnull align 8 dereferenceable(12) ptr @_ZNK4cvc58internal12AtomRequests13atom_iterator3getEv(ptr nocapture noundef nonnull readonly align 8 dereferenceable(16) %this) local_unnamed_addr #8 align 2 {
entry:
  %0 = load ptr, ptr %this, align 8
  %d_index = getelementptr inbounds i8, ptr %this, i64 8
  %1 = load i64, ptr %d_index, align 8
  %d_list.i = getelementptr inbounds i8, ptr %0, i64 96
  %2 = load ptr, ptr %d_list.i, align 8
  %add.ptr.i.i = getelementptr inbounds %"struct.cvc5::internal::AtomRequests::Element", ptr %2, i64 %1
  ret ptr %add.ptr.i.i
}